Certificate:
    Data:
        Version: 3 (0x2)
        Serial Number: 1 (0x1)
        Signature Algorithm: sha256WithRSAEncryption
        Issuer: C=US, ST=New Jersey, L=Princeton, O=Princeton University, OU=PNI, CN=rtcloud.princeton.edu
        Validity
            Not Before: Jan  1 12:00:00 2019 GMT
            Not After : Jan  1 12:00:00 2024 GMT
        Subject: C=US, ST=New Jersey, L=Princeton, O=Princeton University, OU=PNI, CN=rtcloud.princeton.edu
        Subject Public Key Info:
            Public Key Algorithm: rsaEncryption
                RSA Public-Key: (2048 bit)
                Modulus:
                    00:a6:f4:8e:08:ef:f6:b9:aa:a4:36:0f:f8:85:7a:
                    a9:d2:24:1a:33:01:ec:86:05:b0:59:71:e8:39:f1:
                    cc:0d:14:30:15:e3:05:54:26:19:e0:89:08:5e:fd:
                    76:ec:5d:78:e8:c7:bd:b1:81:db:f9:ec:2c:cb:84:
                    92:31:3c:2e:ae:5d:97:c3:9f:47:2d:76:c3:12:d1:
                    a8:4e:51:d5:a8:51:c8:4c:51:ec:35:00:b8:c4:87:
                    ab:5c:5e:a9:a4:0d:7e:a5:56:79:09:cb:ac:6d:97:
                    3b:76:92:90:b4:75:20:63:23:ed:76:48:23:0e:a8:
                    53:20:fa:0d:61:f6:93:2c:25:93:75:7a:5a:88:65:
                    5c:c5:8f:c7:66:6d:2a:c3:e9:16:99:f7:99:ae:67:
                    a5:db:64:2f:c2:5d:52:4a:5a:59:2c:a1:8a:b3:66:
                    f9:43:42:ac:b1:38:1c:d6:40:fe:22:cf:71:8f:82:
                    5a:16:66:72:13:67:bb:f5:f7:a4:98:7d:90:ba:0d:
                    a5:0a:84:1c:0a:b9:a5:61:8f:31:16:7a:66:5e:d8:
                    9b:8b:d5:fd:09:29:57:b9:e4:1d:a7:ea:f2:b1:d6:
                    6a:53:25:04:e7:b8:e6:8a:a5:58:96:25:8f:09:be:
                    13:b9:34:6a:91:e0:f4:3d:fc:5e:d0:e0:49:3d:59:
                    33:09
                Exponent: 65537 (0x10001)
        X509v3 extensions:
            X509v3 Subject Alternative Name: 
                DNS:princeton.edu, DNS:localhost, DNS:localhost, IP Address:172.29.189.22, IP Address:172.29.189.23
    Signature Algorithm: sha256WithRSAEncryption
         7a:12:63:f4:8a:ef:0d:18:16:67:60:d2:b4:e2:e2:3d:b6:39:
         6e:8d:d3:02:e5:4f:38:1c:db:39:b2:87:d8:b3:46:f1:43:11:
         b2:ae:aa:0e:c3:6e:8a:18:52:b2:13:51:08:46:0c:51:7a:97:
         65:ad:98:b7:73:ac:85:ea:b5:fd:28:f4:7b:5b:ba:26:1b:75:
         e3:e8:82:7f:46:18:35:ca:92:a1:e6:39:e8:b0:df:33:83:3c:
         31:e5:d7:19:0a:4a:d8:8e:83:3b:25:59:c4:c1:1c:9a:d3:b0:
         a8:6d:c9:67:62:5d:29:43:86:8c:88:86:64:e8:db:57:5a:7c:
         69:24:c3:f5:99:61:dd:75:da:99:ca:c9:09:25:60:5c:30:4d:
         2e:fc:12:30:3e:5a:a1:c2:1a:a9:56:28:4b:79:ec:4a:ff:6f:
         c8:09:d2:2a:52:7e:df:2d:e3:07:1e:bf:b6:3e:53:12:22:29:
         8b:1c:4e:8e:f5:89:c6:c8:2d:d4:64:10:85:c8:e4:c3:28:4e:
         cc:06:f7:b8:0c:42:e2:0f:f1:37:45:e6:60:2c:20:75:c1:d9:
         95:c4:e0:18:a6:10:b8:48:cb:42:52:09:5b:e2:ac:42:aa:7e:
         b4:28:be:96:50:29:fc:c9:38:c3:d8:fd:b6:9d:11:44:66:b3:
         96:e7:59:d4
-----BEGIN CERTIFICATE-----
MIIDwTCCAqmgAwIBAgIBATANBgkqhkiG9w0BAQsFADCBgzELMAkGA1UEBhMCVVMx
EzARBgNVBAgMCk5ldyBKZXJzZXkxEjAQBgNVBAcMCVByaW5jZXRvbjEdMBsGA1UE
CgwUUHJpbmNldG9uIFVuaXZlcnNpdHkxDDAKBgNVBAsMA1BOSTEeMBwGA1UEAwwV
cnRjbG91ZC5wcmluY2V0b24uZWR1MB4XDTE5MDEwMTEyMDAwMFoXDTI0MDEwMTEy
MDAwMFowgYMxCzAJBgNVBAYTAlVTMRMwEQYDVQQIDApOZXcgSmVyc2V5MRIwEAYD
VQQHDAlQcmluY2V0b24xHTAbBgNVBAoMFFByaW5jZXRvbiBVbml2ZXJzaXR5MQww
CgYDVQQLDANQTkkxHjAcBgNVBAMMFXJ0Y2xvdWQucHJpbmNldG9uLmVkdTCCASIw
DQYJKoZIhvcNAQEBBQADggEPADCCAQoCggEBAKb0jgjv9rmqpDYP+IV6qdIkGjMB
7IYFsFlx6DnxzA0UMBXjBVQmGeCJCF79duxdeOjHvbGB2/nsLMuEkjE8Lq5dl8Of
Ry12wxLRqE5R1ahRyExR7DUAuMSHq1xeqaQNfqVWeQnLrG2XO3aSkLR1IGMj7XZI
Iw6oUyD6DWH2kywlk3V6WohlXMWPx2ZtKsPpFpn3ma5npdtkL8JdUkpaWSyhirNm
+UNCrLE4HNZA/iLPcY+CWhZmchNnu/X3pJh9kLoNpQqEHAq5pWGPMRZ6Zl7Ym4vV
/QkpV7nkHafq8rHWalMlBOe45oqlWJYljwm+E7k0apHg9D38XtDgST1ZMwkCAwEA
AaM+MDwwOgYDVR0RBDMwMYINcHJpbmNldG9uLmVkdYIJbG9jYWxob3N0gglsb2Nh
bGhvc3SHBKwdvRaHBKwdvRcwDQYJKoZIhvcNAQELBQADggEBAHoSY/SK7w0YFmdg
0rTi4j22OW6N0wLlTzgc2zmyh9izRvFDEbKuqg7DbooYUrITUQhGDFF6l2WtmLdz
rIXqtf0o9HtbuiYbdePogn9GGDXKkqHmOeiw3zODPDHl1xkKStiOgzslWcTBHJrT
sKhtyWdiXSlDhoyIhmTo21dafGkkw/WZYd112pnKyQklYFwwTS78EjA+WqHCGqlW
KEt57Er/b8gJ0ipSft8t4wcev7Y+UxIiKYscTo71icbILdRkEIXI5MMoTswG97gM
QuIP8TdF5mAsIHXB2ZXE4BimELhIy0JSCVvirEKqfrQovpZQKfzJOMPY/badEURm
s5bnWdQ=
-----END CERTIFICATE-----
