Certificate:
    Data:
        Version: 3 (0x2)
        Serial Number: 1 (0x1)
        Signature Algorithm: sha256WithRSAEncryption
        Issuer: C=US, ST=New Jersey, L=Princeton, O=Princeton University, OU=PNI, CN=rtcloud.princeton.edu
        Validity
            Not Before: Jan  1 12:00:00 2019 GMT
            Not After : Jan  1 12:00:00 2024 GMT
        Subject: C=US, ST=New Jersey, L=Princeton, O=Princeton University, OU=PNI, CN=rtcloud.princeton.edu
        Subject Public Key Info:
            Public Key Algorithm: rsaEncryption
                RSA Public-Key: (2048 bit)
                Modulus:
                    00:dc:94:6a:4b:16:c2:d8:0b:4f:ec:25:16:49:8f:
                    a6:4f:4a:8e:0b:e4:a4:3b:66:01:a1:99:87:b8:43:
                    07:48:59:34:b7:11:fa:ae:80:bb:20:e8:c4:bf:e9:
                    2b:16:13:89:b3:66:c8:0c:64:fb:be:f2:79:09:69:
                    89:f9:9e:d7:61:bd:8c:b3:f1:3b:c6:66:36:c7:cd:
                    2d:6d:18:cd:d7:55:f0:55:3c:5c:ef:41:a1:d6:79:
                    c6:f8:cc:4c:30:ba:d1:d9:f4:21:35:33:ad:ec:9d:
                    ce:1d:46:82:0c:f8:83:62:30:c3:a2:a7:d6:57:a3:
                    e1:eb:8f:b9:b6:27:66:53:48:25:26:8e:13:3c:c0:
                    f6:38:9b:35:96:d0:45:f9:72:86:62:21:b8:3a:a8:
                    39:5f:aa:45:61:b3:16:44:75:af:28:32:4b:7c:2b:
                    d8:91:0c:21:49:fc:0d:3b:ca:b7:ae:20:54:dd:08:
                    0d:c7:17:35:ec:83:67:8b:f5:82:8b:73:21:0e:16:
                    e3:39:b0:60:53:00:41:97:db:69:e3:66:1a:4d:00:
                    e0:68:b8:15:47:dc:78:7a:bb:92:c6:36:74:81:78:
                    a8:d1:66:73:88:b6:45:d9:fd:f7:fa:e1:f2:2e:1f:
                    c7:36:50:aa:43:95:16:87:03:2a:59:5f:57:aa:65:
                    7c:69
                Exponent: 65537 (0x10001)
        X509v3 extensions:
            X509v3 Subject Alternative Name: 
                DNS:princeton.edu, DNS:localhost, DNS:localhost, IP Address:172.29.189.22
    Signature Algorithm: sha256WithRSAEncryption
         21:e0:ab:1d:ee:ad:df:4c:69:0c:8b:ef:71:a5:ca:48:c3:25:
         65:e6:a3:82:27:0e:61:88:33:80:5e:7f:21:91:c1:6e:30:31:
         29:e8:4b:c9:6c:ba:cc:6f:02:de:f2:16:bb:78:a4:8a:50:78:
         a0:38:b7:bd:b5:30:18:70:af:79:ba:23:a1:08:cd:72:4f:19:
         f5:9f:0f:75:45:3a:2d:50:bb:bb:a5:66:e7:81:ec:b2:f3:72:
         83:07:2a:38:cb:8f:13:f9:d7:d3:5a:88:b8:fc:26:3a:47:5f:
         64:3c:7c:1d:b6:09:03:4a:53:ae:ee:ef:ba:73:c3:2c:4b:cb:
         54:c1:40:1e:31:69:f1:c8:fe:82:2e:30:99:b0:65:22:5d:b6:
         ce:26:26:bd:55:1b:05:87:95:92:5e:30:04:41:ee:86:69:aa:
         16:d1:c1:5f:bc:1a:eb:3a:f3:15:61:73:10:43:1f:9a:c9:96:
         58:0a:f3:28:3a:9b:7f:ed:fa:0b:86:c7:18:32:82:17:e6:bf:
         e0:4a:0e:d7:8d:61:38:25:7c:34:d8:e5:99:09:32:2f:13:7f:
         5c:a6:b8:0b:90:b8:d5:80:c1:77:c8:72:19:b6:c2:95:c3:bc:
         1d:1b:60:ea:fa:0f:ea:6d:ae:1a:c9:a9:9d:66:c7:a0:6c:15:
         12:80:bb:c5
-----BEGIN CERTIFICATE-----
MIIDuzCCAqOgAwIBAgIBATANBgkqhkiG9w0BAQsFADCBgzELMAkGA1UEBhMCVVMx
EzARBgNVBAgMCk5ldyBKZXJzZXkxEjAQBgNVBAcMCVByaW5jZXRvbjEdMBsGA1UE
CgwUUHJpbmNldG9uIFVuaXZlcnNpdHkxDDAKBgNVBAsMA1BOSTEeMBwGA1UEAwwV
cnRjbG91ZC5wcmluY2V0b24uZWR1MB4XDTE5MDEwMTEyMDAwMFoXDTI0MDEwMTEy
MDAwMFowgYMxCzAJBgNVBAYTAlVTMRMwEQYDVQQIDApOZXcgSmVyc2V5MRIwEAYD
VQQHDAlQcmluY2V0b24xHTAbBgNVBAoMFFByaW5jZXRvbiBVbml2ZXJzaXR5MQww
CgYDVQQLDANQTkkxHjAcBgNVBAMMFXJ0Y2xvdWQucHJpbmNldG9uLmVkdTCCASIw
DQYJKoZIhvcNAQEBBQADggEPADCCAQoCggEBANyUaksWwtgLT+wlFkmPpk9Kjgvk
pDtmAaGZh7hDB0hZNLcR+q6AuyDoxL/pKxYTibNmyAxk+77yeQlpifme12G9jLPx
O8ZmNsfNLW0YzddV8FU8XO9BodZ5xvjMTDC60dn0ITUzreydzh1Gggz4g2Iww6Kn
1lej4euPubYnZlNIJSaOEzzA9jibNZbQRflyhmIhuDqoOV+qRWGzFkR1rygyS3wr
2JEMIUn8DTvKt64gVN0IDccXNeyDZ4v1gotzIQ4W4zmwYFMAQZfbaeNmGk0A4Gi4
FUfceHq7ksY2dIF4qNFmc4i2Rdn99/rh8i4fxzZQqkOVFocDKllfV6plfGkCAwEA
AaM4MDYwNAYDVR0RBC0wK4INcHJpbmNldG9uLmVkdYIJbG9jYWxob3N0gglsb2Nh
bGhvc3SHBKwdvRYwDQYJKoZIhvcNAQELBQADggEBACHgqx3urd9MaQyL73GlykjD
JWXmo4InDmGIM4BefyGRwW4wMSnoS8lsusxvAt7yFrt4pIpQeKA4t721MBhwr3m6
I6EIzXJPGfWfD3VFOi1Qu7ulZueB7LLzcoMHKjjLjxP519NaiLj8JjpHX2Q8fB22
CQNKU67u77pzwyxLy1TBQB4xafHI/oIuMJmwZSJdts4mJr1VGwWHlZJeMARB7oZp
qhbRwV+8Gus68xVhcxBDH5rJllgK8yg6m3/t+guGxxgyghfmv+BKDteNYTglfDTY
5ZkJMi8Tf1ymuAuQuNWAwXfIchm2wpXDvB0bYOr6D+ptrhrJqZ1mx6BsFRKAu8U=
-----END CERTIFICATE-----
