Certificate:
    Data:
        Version: 3 (0x2)
        Serial Number: 1 (0x1)
        Signature Algorithm: sha256WithRSAEncryption
        Issuer: C=US, ST=New Jersey, L=Princeton, O=Princeton University, OU=PNI, CN=rtcloud.princeton.edu
        Validity
            Not Before: Jan  1 12:00:00 2019 GMT
            Not After : Jan  1 12:00:00 2024 GMT
        Subject: C=US, ST=New Jersey, L=Princeton, O=Princeton University, OU=PNI, CN=rtcloud.princeton.edu
        Subject Public Key Info:
            Public Key Algorithm: rsaEncryption
                RSA Public-Key: (2048 bit)
                Modulus:
                    00:a6:f4:8e:08:ef:f6:b9:aa:a4:36:0f:f8:85:7a:
                    a9:d2:24:1a:33:01:ec:86:05:b0:59:71:e8:39:f1:
                    cc:0d:14:30:15:e3:05:54:26:19:e0:89:08:5e:fd:
                    76:ec:5d:78:e8:c7:bd:b1:81:db:f9:ec:2c:cb:84:
                    92:31:3c:2e:ae:5d:97:c3:9f:47:2d:76:c3:12:d1:
                    a8:4e:51:d5:a8:51:c8:4c:51:ec:35:00:b8:c4:87:
                    ab:5c:5e:a9:a4:0d:7e:a5:56:79:09:cb:ac:6d:97:
                    3b:76:92:90:b4:75:20:63:23:ed:76:48:23:0e:a8:
                    53:20:fa:0d:61:f6:93:2c:25:93:75:7a:5a:88:65:
                    5c:c5:8f:c7:66:6d:2a:c3:e9:16:99:f7:99:ae:67:
                    a5:db:64:2f:c2:5d:52:4a:5a:59:2c:a1:8a:b3:66:
                    f9:43:42:ac:b1:38:1c:d6:40:fe:22:cf:71:8f:82:
                    5a:16:66:72:13:67:bb:f5:f7:a4:98:7d:90:ba:0d:
                    a5:0a:84:1c:0a:b9:a5:61:8f:31:16:7a:66:5e:d8:
                    9b:8b:d5:fd:09:29:57:b9:e4:1d:a7:ea:f2:b1:d6:
                    6a:53:25:04:e7:b8:e6:8a:a5:58:96:25:8f:09:be:
                    13:b9:34:6a:91:e0:f4:3d:fc:5e:d0:e0:49:3d:59:
                    33:09
                Exponent: 65537 (0x10001)
        X509v3 extensions:
            X509v3 Subject Alternative Name: 
                DNS:princeton.edu, DNS:localhost, DNS:localhost, IP Address:172.29.189.23
    Signature Algorithm: sha256WithRSAEncryption
         57:58:a6:ba:ca:04:b8:39:1a:d8:87:f0:f8:e4:8e:94:59:25:
         5b:a8:02:26:ce:c8:cf:48:8a:ec:0a:05:42:cd:2f:c1:ef:cb:
         87:97:5c:de:32:39:27:5e:f8:26:45:d8:fc:6f:c2:85:2b:eb:
         5e:cc:0d:68:0d:04:56:55:80:bc:a0:92:18:81:33:81:37:48:
         1b:25:4f:20:a6:99:32:74:58:ef:06:64:fe:35:89:f0:90:18:
         6b:a7:a4:b1:a9:6e:fc:f4:76:72:d5:44:1b:f3:7a:15:ea:5c:
         6c:55:b1:e7:35:87:bc:84:57:17:33:69:65:e2:15:d4:bb:a2:
         24:34:b4:3a:01:e4:70:5b:cd:ea:3d:9d:3e:66:96:0a:7b:51:
         be:d8:ff:a1:03:a2:f5:cf:e4:69:b1:d6:1d:a3:89:6a:fd:c5:
         44:50:b3:4c:d8:2c:a3:1c:2d:c9:84:72:fc:74:08:e8:ce:37:
         e5:71:c5:80:05:05:60:79:a3:d0:3b:e4:21:9c:fb:cb:d0:ea:
         da:f7:03:dc:7a:84:50:90:14:5e:a8:0f:4f:c9:b6:47:35:bd:
         16:6a:95:50:33:c7:e2:49:b1:90:9d:16:53:9a:6f:1e:7c:10:
         45:98:07:18:46:1e:a9:eb:6a:a5:c3:a9:7e:77:46:0a:1d:60:
         7e:02:7e:4b
-----BEGIN CERTIFICATE-----
MIIDuzCCAqOgAwIBAgIBATANBgkqhkiG9w0BAQsFADCBgzELMAkGA1UEBhMCVVMx
EzARBgNVBAgMCk5ldyBKZXJzZXkxEjAQBgNVBAcMCVByaW5jZXRvbjEdMBsGA1UE
CgwUUHJpbmNldG9uIFVuaXZlcnNpdHkxDDAKBgNVBAsMA1BOSTEeMBwGA1UEAwwV
cnRjbG91ZC5wcmluY2V0b24uZWR1MB4XDTE5MDEwMTEyMDAwMFoXDTI0MDEwMTEy
MDAwMFowgYMxCzAJBgNVBAYTAlVTMRMwEQYDVQQIDApOZXcgSmVyc2V5MRIwEAYD
VQQHDAlQcmluY2V0b24xHTAbBgNVBAoMFFByaW5jZXRvbiBVbml2ZXJzaXR5MQww
CgYDVQQLDANQTkkxHjAcBgNVBAMMFXJ0Y2xvdWQucHJpbmNldG9uLmVkdTCCASIw
DQYJKoZIhvcNAQEBBQADggEPADCCAQoCggEBAKb0jgjv9rmqpDYP+IV6qdIkGjMB
7IYFsFlx6DnxzA0UMBXjBVQmGeCJCF79duxdeOjHvbGB2/nsLMuEkjE8Lq5dl8Of
Ry12wxLRqE5R1ahRyExR7DUAuMSHq1xeqaQNfqVWeQnLrG2XO3aSkLR1IGMj7XZI
Iw6oUyD6DWH2kywlk3V6WohlXMWPx2ZtKsPpFpn3ma5npdtkL8JdUkpaWSyhirNm
+UNCrLE4HNZA/iLPcY+CWhZmchNnu/X3pJh9kLoNpQqEHAq5pWGPMRZ6Zl7Ym4vV
/QkpV7nkHafq8rHWalMlBOe45oqlWJYljwm+E7k0apHg9D38XtDgST1ZMwkCAwEA
AaM4MDYwNAYDVR0RBC0wK4INcHJpbmNldG9uLmVkdYIJbG9jYWxob3N0gglsb2Nh
bGhvc3SHBKwdvRcwDQYJKoZIhvcNAQELBQADggEBAFdYprrKBLg5GtiH8PjkjpRZ
JVuoAibOyM9IiuwKBULNL8Hvy4eXXN4yOSde+CZF2PxvwoUr617MDWgNBFZVgLyg
khiBM4E3SBslTyCmmTJ0WO8GZP41ifCQGGunpLGpbvz0dnLVRBvzehXqXGxVsec1
h7yEVxczaWXiFdS7oiQ0tDoB5HBbzeo9nT5mlgp7Ub7Y/6EDovXP5Gmx1h2jiWr9
xURQs0zYLKMcLcmEcvx0COjON+VxxYAFBWB5o9A75CGc+8vQ6tr3A9x6hFCQFF6o
D0/Jtkc1vRZqlVAzx+JJsZCdFlOabx58EEWYBxhGHqnraqXDqX53RgodYH4Cfks=
-----END CERTIFICATE-----
